(dp1
S'output'
p2
S"<type 'exceptions.IOError'> [Errno 2] No such file or directory: 'applications/myapp/static/images/test.png'"
p3
sS'layer'
p4
S'/fio/srvx7/leo/python/web2py/applications/myapp/controllers/default.py'
p5
sS'code'
p6
S'# -*- coding: utf-8 -*-\n# this file is released under public domain and you can use without limitations\n\n#########################################################################\n## This is a sample controller\n## - index is the default action of any application\n## - user is required for authentication and authorization\n## - download is for downloading files uploaded in the db (does streaming)\n## - api is an example of Hypermedia API support and access control\n#########################################################################\n\nimport matplotlib.pylab as plt\nimport numpy\n\ndef index():\n    return dict()\n\ndef first():\n    return \'Hi there\'\n\ndef second():\n    return BEAUTIFY(request.vars)\n\ndef third():\n    n=eval(request.vars.name)\n    x=numpy.arange(n)\n    y=x*x\n    plt.plot(x,y)\n#    dbg.set_trace()\n    \n    s=sum(x)\n    plt.title(\'{0}\'.format(s))\n    plt.savefig(\'applications/myapp/static/images/test.png\')\n    plt.clf()\n    return IMG(_src=URL(\'static\',\'images/test.png\'),id=\'testfig\', _onclick="jQuery(this).slideToggle()")\n\ndef user():\n    """\n    exposes:\n    http://..../[app]/default/user/login\n    http://..../[app]/default/user/logout\n    http://..../[app]/default/user/register\n    http://..../[app]/default/user/profile\n    http://..../[app]/default/user/retrieve_password\n    http://..../[app]/default/user/change_password\n    http://..../[app]/default/user/manage_users (requires membership in\n    use @auth.requires_login()\n        @auth.requires_membership(\'group name\')\n        @auth.requires_permission(\'read\',\'table name\',record_id)\n    to decorate functions that need access control\n    """\n    return dict(form=auth())\n\n\n\ndef call():\n    """\n    exposes services. for example:\n    http://..../[app]/default/call/jsonrpc\n    decorate with @services.jsonrpc the functions to expose\n    supports xml, json, xmlrpc, jsonrpc, amfrpc, rss, csv\n    """\n    return service()\n\nresponse._vars=response._caller(third)\n'
p7
sS'snapshot'
p8
(dp9
sS'traceback'
p10
S'Traceback (most recent call last):\n  File "/fio/srvx7/leo/python/web2py/gluon/restricted.py", line 224, in restricted\n    exec ccode in environment\n  File "/fio/srvx7/leo/python/web2py/applications/myapp/controllers/default.py", line 65, in <module>\n  File "/fio/srvx7/leo/python/web2py/gluon/globals.py", line 392, in <lambda>\n    self._caller = lambda f: f()\n  File "/fio/srvx7/leo/python/web2py/applications/myapp/controllers/default.py", line 33, in third\n    plt.savefig(\'applications/myapp/static/images/test.png\')\n  File "/opt/anaconda/lib/python2.7/site-packages/matplotlib/pyplot.py", line 576, in savefig\n    res = fig.savefig(*args, **kwargs)\n  File "/opt/anaconda/lib/python2.7/site-packages/matplotlib/figure.py", line 1470, in savefig\n    self.canvas.print_figure(*args, **kwargs)\n  File "/opt/anaconda/lib/python2.7/site-packages/matplotlib/backends/backend_qt5agg.py", line 161, in print_figure\n    FigureCanvasAgg.print_figure(self, *args, **kwargs)\n  File "/opt/anaconda/lib/python2.7/site-packages/matplotlib/backend_bases.py", line 2192, in print_figure\n    **kwargs)\n  File "/opt/anaconda/lib/python2.7/site-packages/matplotlib/backends/backend_agg.py", line 518, in print_png\n    filename_or_obj = open(filename_or_obj, \'wb\')\nIOError: [Errno 2] No such file or directory: \'applications/myapp/static/images/test.png\'\n'
p11
s.